; Function Attrs: nounwind uwtable
define internal fastcc void @tear_down(ptr noundef %0) unnamed_addr #0 {
  %.not = icmp eq ptr %0, null
  br i1 %.not, label %15, label %2

2:                                                ; preds = %1
  %3 = getelementptr inbounds nuw i8, ptr %0, i64 8
  %4 = load ptr, ptr %3, align 8, !tbaa !36
  tail call void @OSSL_CMP_CTX_free(ptr noundef %4) #5
  %5 = getelementptr inbounds nuw i8, ptr %0, i64 16
  %6 = load ptr, ptr %5, align 8, !tbaa !19
  tail call void @OSSL_CMP_MSG_free(ptr noundef %6) #5
  %7 = getelementptr inbounds nuw i8, ptr %0, i64 24
  %8 = load ptr, ptr %7, align 8, !tbaa !37
  tail call void @OSSL_CMP_PKISI_free(ptr noundef %8) #5
  %9 = getelementptr inbounds nuw i8, ptr %0, i64 40
  %10 = load ptr, ptr %9, align 8, !tbaa !38
  tail call void @CRYPTO_free(ptr noundef %10, ptr noundef nonnull @.str.14, i32 noundef 46) #5
  %11 = getelementptr inbounds nuw i8, ptr %0, i64 64
  %12 = load ptr, ptr %11, align 8, !tbaa !39
  tail call void @OPENSSL_sk_free(ptr noundef %12) #5
  %13 = getelementptr inbounds nuw i8, ptr %0, i64 72
  %14 = load ptr, ptr %13, align 8, !tbaa !40
  tail call void @OPENSSL_sk_free(ptr noundef %14) #5
  tail call void @CRYPTO_free(ptr noundef nonnull %0, ptr noundef nonnull @.str.14, i32 noundef 50) #5
  br label %15

15:                                               ; preds = %2, %1
  ret void
}